; Function Attrs: mustprogress uwtable
define internal void @_ZN12_GLOBAL__N_111upscaleImplIfEEvRKN2cv11_InputArrayERKNS1_12_OutputArrayEi(ptr noundef nonnull align 8 dereferenceable(24) %0, ptr noundef nonnull align 8 dereferenceable(24) %1, i32 noundef %2) #0 personality ptr @__gxx_personality_v0 {
  %4 = alloca %"class.cv::Mat", align 8
  %5 = alloca %"class.cv::_InputArray", align 8
  %6 = alloca %"class.cv::Scalar_", align 8
  %7 = alloca %"class.cv::_InputArray", align 8
  %8 = alloca %"class.cv::Mat", align 8
  %9 = tail call noundef i32 @_ZNK2cv11_InputArray4kindEv(ptr noundef nonnull align 8 dereferenceable(24) %0), !noalias !63
  %10 = icmp eq i32 %9, 65536
  br i1 %10, label %11, label %14

11:                                               ; preds = %3
  %12 = getelementptr inbounds i8, ptr %0, i64 8
  %13 = load ptr, ptr %12, align 8, !noalias !63
  call void @_ZN2cv3MatC1ERKS0_(ptr noundef nonnull align 8 dereferenceable(96) %4, ptr noundef nonnull align 8 dereferenceable(96) %13)
  br label %_ZNK2cv11_InputArray6getMatEi.exit

14:                                               ; preds = %3
  call void @_ZNK2cv11_InputArray7getMat_Ei(ptr dead_on_unwind nonnull writable sret(%"class.cv::Mat") align 8 %4, ptr noundef nonnull align 8 dereferenceable(24) %0, i32 noundef -1)
  br label %_ZNK2cv11_InputArray6getMatEi.exit

_ZNK2cv11_InputArray6getMatEi.exit:               ; preds = %11, %14
  %15 = getelementptr inbounds i8, ptr %4, i64 8
  %16 = load i32, ptr %15, align 8
  %17 = mul nsw i32 %16, %2
  %18 = getelementptr inbounds i8, ptr %4, i64 12
  %19 = load i32, ptr %18, align 4
  %20 = mul nsw i32 %19, %2
  %21 = load i32, ptr %4, align 8
  %22 = and i32 %21, 4095
  invoke void @_ZNK2cv12_OutputArray6createEiiiibNS0_9DepthMaskE(ptr noundef nonnull align 8 dereferenceable(24) %1, i32 noundef %17, i32 noundef %20, i32 noundef %22, i32 noundef -1, i1 noundef zeroext false, i32 noundef 0)
          to label %23 unwind label %62

23:                                               ; preds = %_ZNK2cv11_InputArray6getMatEi.exit
  %24 = getelementptr inbounds i8, ptr %5, i64 16
  call void @llvm.memset.p0.i64(ptr noundef nonnull align 8 dereferenceable(32) %6, i8 0, i64 32, i1 false)
  store i32 -1056833530, ptr %5, align 8
  %25 = getelementptr inbounds i8, ptr %5, i64 8
  store ptr %6, ptr %25, align 8
  store i64 17179869185, ptr %24, align 8
  store i32 0, ptr %7, align 8
  %26 = getelementptr inbounds i8, ptr %7, i64 8
  call void @llvm.memset.p0.i64(ptr noundef nonnull align 8 dereferenceable(16) %26, i8 0, i64 16, i1 false)
  invoke void @_ZNK2cv12_OutputArray5setToERKNS_11_InputArrayES3_(ptr noundef nonnull align 8 dereferenceable(24) %1, ptr noundef nonnull align 8 dereferenceable(24) %5, ptr noundef nonnull align 8 dereferenceable(24) %7)
          to label %27 unwind label %64

27:                                               ; preds = %23
  %28 = invoke noundef i32 @_ZNK2cv11_InputArray4kindEv(ptr noundef nonnull align 8 dereferenceable(24) %1)
          to label %.noexc unwind label %62

.noexc:                                           ; preds = %27
  %29 = icmp eq i32 %28, 65536
  br i1 %29, label %30, label %33

30:                                               ; preds = %.noexc
  %31 = getelementptr inbounds i8, ptr %1, i64 8
  %32 = load ptr, ptr %31, align 8, !noalias !66
  invoke void @_ZN2cv3MatC1ERKS0_(ptr noundef nonnull align 8 dereferenceable(96) %8, ptr noundef nonnull align 8 dereferenceable(96) %32)
          to label %_ZNK2cv11_InputArray6getMatEi.exit32 unwind label %62

33:                                               ; preds = %.noexc
  invoke void @_ZNK2cv11_InputArray7getMat_Ei(ptr dead_on_unwind nonnull writable sret(%"class.cv::Mat") align 8 %8, ptr noundef nonnull align 8 dereferenceable(24) %1, i32 noundef -1)
          to label %_ZNK2cv11_InputArray6getMatEi.exit32 unwind label %62

_ZNK2cv11_InputArray6getMatEi.exit32:             ; preds = %33, %30
  %34 = load i32, ptr %15, align 8
  %35 = icmp sgt i32 %34, 0
  br i1 %35, label %.lr.ph37, label %._crit_edge38

.lr.ph37:                                         ; preds = %_ZNK2cv11_InputArray6getMatEi.exit32
  %36 = getelementptr inbounds i8, ptr %4, i64 16
  %37 = getelementptr inbounds i8, ptr %4, i64 72
  %38 = getelementptr inbounds i8, ptr %8, i64 16
  %39 = getelementptr inbounds i8, ptr %8, i64 72
  %40 = load i32, ptr %18, align 4
  %41 = icmp sgt i32 %40, 0
  br i1 %41, label %.lr.ph37.split.preheader, label %._crit_edge38

.lr.ph37.split.preheader:                         ; preds = %.lr.ph37
  %42 = sext i32 %2 to i64
  br label %.lr.ph37.split

.lr.ph37.split:                                   ; preds = %.lr.ph37.split.preheader, %._crit_edge
  %43 = phi i32 [ %34, %.lr.ph37.split.preheader ], [ %66, %._crit_edge ]
  %44 = phi i32 [ %40, %.lr.ph37.split.preheader ], [ %67, %._crit_edge ]
  %indvars.iv47 = phi i64 [ 0, %.lr.ph37.split.preheader ], [ %indvars.iv.next48, %._crit_edge ]
  %indvars.iv45 = phi i64 [ 0, %.lr.ph37.split.preheader ], [ %indvars.iv.next46, %._crit_edge ]
  %45 = load ptr, ptr %36, align 8
  %46 = load ptr, ptr %37, align 8
  %47 = load i64, ptr %46, align 8
  %48 = mul i64 %47, %indvars.iv47
  %49 = getelementptr inbounds i8, ptr %45, i64 %48
  %50 = load ptr, ptr %38, align 8
  %51 = load ptr, ptr %39, align 8
  %52 = load i64, ptr %51, align 8
  %53 = mul i64 %52, %indvars.iv45
  %54 = getelementptr inbounds i8, ptr %50, i64 %53
  %55 = icmp sgt i32 %44, 0
  br i1 %55, label %.lr.ph, label %._crit_edge

.lr.ph:                                           ; preds = %.lr.ph37.split, %.lr.ph
  %indvars.iv40 = phi i64 [ %indvars.iv.next41, %.lr.ph ], [ 0, %.lr.ph37.split ]
  %indvars.iv = phi i64 [ %indvars.iv.next, %.lr.ph ], [ 0, %.lr.ph37.split ]
  %56 = getelementptr inbounds float, ptr %49, i64 %indvars.iv40
  %57 = load float, ptr %56, align 4
  %58 = getelementptr inbounds float, ptr %54, i64 %indvars.iv
  store float %57, ptr %58, align 4
  %indvars.iv.next41 = add nuw nsw i64 %indvars.iv40, 1
  %indvars.iv.next = add nsw i64 %indvars.iv, %42
  %59 = load i32, ptr %18, align 4
  %60 = sext i32 %59 to i64
  %61 = icmp slt i64 %indvars.iv.next41, %60
  br i1 %61, label %.lr.ph, label %._crit_edge.loopexit, !llvm.loop !69

62:                                               ; preds = %33, %30, %27, %_ZNK2cv11_InputArray6getMatEi.exit
  %63 = landingpad { ptr, i32 }
          cleanup
  br label %70

64:                                               ; preds = %23
  %65 = landingpad { ptr, i32 }
          cleanup
  br label %70

._crit_edge.loopexit:                             ; preds = %.lr.ph
  %.pre = load i32, ptr %15, align 8
  br label %._crit_edge

._crit_edge:                                      ; preds = %._crit_edge.loopexit, %.lr.ph37.split
  %66 = phi i32 [ %.pre, %._crit_edge.loopexit ], [ %43, %.lr.ph37.split ]
  %67 = phi i32 [ %59, %._crit_edge.loopexit ], [ %44, %.lr.ph37.split ]
  %indvars.iv.next48 = add nuw nsw i64 %indvars.iv47, 1
  %indvars.iv.next46 = add nsw i64 %indvars.iv45, %42
  %68 = sext i32 %66 to i64
  %69 = icmp slt i64 %indvars.iv.next48, %68
  br i1 %69, label %.lr.ph37.split, label %._crit_edge38, !llvm.loop !70

._crit_edge38:                                    ; preds = %._crit_edge, %.lr.ph37, %_ZNK2cv11_InputArray6getMatEi.exit32
  call void @_ZN2cv3MatD1Ev(ptr noundef nonnull align 8 dereferenceable(96) %8) #29
  call void @_ZN2cv3MatD1Ev(ptr noundef nonnull align 8 dereferenceable(96) %4) #29
  ret void

70:                                               ; preds = %64, %62
  %.pn28 = phi { ptr, i32 } [ %63, %62 ], [ %65, %64 ]
  call void @_ZN2cv3MatD1Ev(ptr noundef nonnull align 8 dereferenceable(96) %4) #29
  resume { ptr, i32 } %.pn28
}